target datalayout = "e-m:e-p270:32:32-p271:32:32-p272:64:64-i64:64-i128:128-f80:128-n8:16:32:64-S128"
target triple = "x86_64-pc-linux-gnu"

%"class.Luau::Variant.198" = type { i32, [4 x i8], [8 x i8] }
%"struct.std::hash.145" = type { i8 }
%"struct.std::hash.164" = type { i8 }
%"struct.std::hash.199" = type { i8 }

; Function Attrs: mustprogress nounwind uwtable
define linkonce_odr dso_local noundef ptr @_ZNK4Luau7VariantIJPKNS_4TypeEPKNS_11TypePackVarEPKNS_10ConstraintEEE6get_ifIS9_EEPKT_v(ptr noundef nonnull align 8 dereferenceable(16) %0) #2 comdat align 2 {
  %2 = alloca ptr, align 8
  %3 = alloca i32, align 4
  store ptr %0, ptr %2, align 8, !tbaa !132
  %4 = load ptr, ptr %2, align 8
  call void @llvm.lifetime.start.p0(i64 4, ptr %3) #4
  store i32 2, ptr %3, align 4, !tbaa !4
  %5 = getelementptr inbounds nuw %"class.Luau::Variant.198", ptr %4, i32 0, i32 0
  %6 = load i32, ptr %5, align 8, !tbaa !1142
  %7 = icmp eq i32 2, %6
  br i1 %7, label %8, label %10

8:                                                ; preds = %1
  %9 = getelementptr inbounds nuw %"class.Luau::Variant.198", ptr %4, i32 0, i32 2
  br label %11

10:                                               ; preds = %1
  br label %11

11:                                               ; preds = %10, %8
  %12 = phi ptr [ %9, %8 ], [ null, %10 ]
  call void @llvm.lifetime.end.p0(i64 4, ptr %3) #4
  ret ptr %12
}

; Function Attrs: mustprogress nounwind uwtable
define linkonce_odr dso_local noundef ptr @_ZNK4Luau7VariantIJPKNS_4TypeEPKNS_11TypePackVarEPKNS_10ConstraintEEE6get_ifIS6_EEPKT_v(ptr noundef nonnull align 8 dereferenceable(16) %0) #2 comdat align 2 {
  %2 = alloca ptr, align 8
  %3 = alloca i32, align 4
  store ptr %0, ptr %2, align 8, !tbaa !132
  %4 = load ptr, ptr %2, align 8
  call void @llvm.lifetime.start.p0(i64 4, ptr %3) #4
  store i32 1, ptr %3, align 4, !tbaa !4
  %5 = getelementptr inbounds nuw %"class.Luau::Variant.198", ptr %4, i32 0, i32 0
  %6 = load i32, ptr %5, align 8, !tbaa !1142
  %7 = icmp eq i32 1, %6
  br i1 %7, label %8, label %10

8:                                                ; preds = %1
  %9 = getelementptr inbounds nuw %"class.Luau::Variant.198", ptr %4, i32 0, i32 2
  br label %11

10:                                               ; preds = %1
  br label %11

11:                                               ; preds = %10, %8
  %12 = phi ptr [ %9, %8 ], [ null, %10 ]
  call void @llvm.lifetime.end.p0(i64 4, ptr %3) #4
  ret ptr %12
}

; Function Attrs: mustprogress nounwind uwtable
define linkonce_odr dso_local noundef ptr @_ZNK4Luau7VariantIJPKNS_4TypeEPKNS_11TypePackVarEPKNS_10ConstraintEEE6get_ifIS3_EEPKT_v(ptr noundef nonnull align 8 dereferenceable(16) %0) #2 comdat align 2 {
  %2 = alloca ptr, align 8
  %3 = alloca i32, align 4
  store ptr %0, ptr %2, align 8, !tbaa !132
  %4 = load ptr, ptr %2, align 8
  call void @llvm.lifetime.start.p0(i64 4, ptr %3) #4
  store i32 0, ptr %3, align 4, !tbaa !4
  %5 = getelementptr inbounds nuw %"class.Luau::Variant.198", ptr %4, i32 0, i32 0
  %6 = load i32, ptr %5, align 8, !tbaa !1142
  %7 = icmp eq i32 0, %6
  br i1 %7, label %8, label %10

8:                                                ; preds = %1
  %9 = getelementptr inbounds nuw %"class.Luau::Variant.198", ptr %4, i32 0, i32 2
  br label %11

10:                                               ; preds = %1
  br label %11

11:                                               ; preds = %10, %8
  %12 = phi ptr [ %9, %8 ], [ null, %10 ]
  call void @llvm.lifetime.end.p0(i64 4, ptr %3) #4
  ret ptr %12
}

; Function Attrs: mustprogress nounwind uwtable
define linkonce_odr dso_local noundef i64 @_ZNKSt4hashIPKN4Luau10ConstraintEEclES3_(ptr noundef nonnull align 1 dereferenceable(1) %0, ptr noundef %1) #2 comdat align 2 {
  %3 = alloca ptr, align 8
  %4 = alloca ptr, align 8
  store ptr %0, ptr %3, align 8, !tbaa !142
  store ptr %1, ptr %4, align 8, !tbaa !60
  %5 = load ptr, ptr %4, align 8, !tbaa !60
  %6 = ptrtoint ptr %5 to i64
  ret i64 %6
}

; Function Attrs: mustprogress uwtable
define linkonce_odr dso_local noundef ptr @_ZN4Luau6get_ifIPKNS_10ConstraintEJPKNS_4TypeEPKNS_11TypePackVarES3_EEEPKT_PKNS_7VariantIJDpT0_EEE(ptr noundef %0) #6 comdat {
  %2 = alloca ptr, align 8
  store ptr %0, ptr %2, align 8, !tbaa !132
  %3 = load ptr, ptr %2, align 8, !tbaa !132
  %4 = icmp ne ptr %3, null
  br i1 %4, label %5, label %8

5:                                                ; preds = %1
  %6 = load ptr, ptr %2, align 8, !tbaa !132
  %7 = call noundef ptr @_ZNK4Luau7VariantIJPKNS_4TypeEPKNS_11TypePackVarEPKNS_10ConstraintEEE6get_ifIS9_EEPKT_v(ptr noundef nonnull align 8 dereferenceable(16) %6)
  br label %9

8:                                                ; preds = %1
  br label %9

9:                                                ; preds = %8, %5
  %10 = phi ptr [ %7, %5 ], [ null, %8 ]
  ret ptr %10
}

; Function Attrs: mustprogress nounwind uwtable
define linkonce_odr dso_local noundef i64 @_ZNKSt4hashIPKN4Luau11TypePackVarEEclES3_(ptr noundef nonnull align 1 dereferenceable(1) %0, ptr noundef %1) #2 comdat align 2 {
  %3 = alloca ptr, align 8
  %4 = alloca ptr, align 8
  store ptr %0, ptr %3, align 8, !tbaa !140
  store ptr %1, ptr %4, align 8, !tbaa !128
  %5 = load ptr, ptr %4, align 8, !tbaa !128
  %6 = ptrtoint ptr %5 to i64
  ret i64 %6
}

; Function Attrs: mustprogress uwtable
define linkonce_odr dso_local noundef ptr @_ZN4Luau6get_ifIPKNS_11TypePackVarEJPKNS_4TypeES3_PKNS_10ConstraintEEEEPKT_PKNS_7VariantIJDpT0_EEE(ptr noundef %0) #6 comdat {
  %2 = alloca ptr, align 8
  store ptr %0, ptr %2, align 8, !tbaa !132
  %3 = load ptr, ptr %2, align 8, !tbaa !132
  %4 = icmp ne ptr %3, null
  br i1 %4, label %5, label %8

5:                                                ; preds = %1
  %6 = load ptr, ptr %2, align 8, !tbaa !132
  %7 = call noundef ptr @_ZNK4Luau7VariantIJPKNS_4TypeEPKNS_11TypePackVarEPKNS_10ConstraintEEE6get_ifIS6_EEPKT_v(ptr noundef nonnull align 8 dereferenceable(16) %6)
  br label %9

8:                                                ; preds = %1
  br label %9

9:                                                ; preds = %8, %5
  %10 = phi ptr [ %7, %5 ], [ null, %8 ]
  ret ptr %10
}

; Function Attrs: mustprogress nounwind uwtable
define linkonce_odr dso_local noundef i64 @_ZNKSt4hashIPKN4Luau4TypeEEclES3_(ptr noundef nonnull align 1 dereferenceable(1) %0, ptr noundef %1) #2 comdat align 2 {
  %3 = alloca ptr, align 8
  %4 = alloca ptr, align 8
  store ptr %0, ptr %3, align 8, !tbaa !138
  store ptr %1, ptr %4, align 8, !tbaa !44
  %5 = load ptr, ptr %4, align 8, !tbaa !44
  %6 = ptrtoint ptr %5 to i64
  ret i64 %6
}

; Function Attrs: mustprogress uwtable
define linkonce_odr dso_local noundef ptr @_ZN4Luau6get_ifIPKNS_4TypeEJS3_PKNS_11TypePackVarEPKNS_10ConstraintEEEEPKT_PKNS_7VariantIJDpT0_EEE(ptr noundef %0) #6 comdat {
  %2 = alloca ptr, align 8
  store ptr %0, ptr %2, align 8, !tbaa !132
  %3 = load ptr, ptr %2, align 8, !tbaa !132
  %4 = icmp ne ptr %3, null
  br i1 %4, label %5, label %8

5:                                                ; preds = %1
  %6 = load ptr, ptr %2, align 8, !tbaa !132
  %7 = call noundef ptr @_ZNK4Luau7VariantIJPKNS_4TypeEPKNS_11TypePackVarEPKNS_10ConstraintEEE6get_ifIS3_EEPKT_v(ptr noundef nonnull align 8 dereferenceable(16) %6)
  br label %9

8:                                                ; preds = %1
  br label %9

9:                                                ; preds = %8, %5
  %10 = phi ptr [ %7, %5 ], [ null, %8 ]
  ret ptr %10
}

; Function Attrs: mustprogress uwtable
define dso_local noundef i64 @_ZNK4Luau23HashBlockedConstraintIdclERKNS_7VariantIJPKNS_4TypeEPKNS_11TypePackVarEPKNS_10ConstraintEEEE(ptr noundef nonnull align 1 dereferenceable(1) %0, ptr noundef nonnull align 8 dereferenceable(16) %1) #6 align 2 {
  %3 = alloca ptr, align 8
  %4 = alloca ptr, align 8
  %5 = alloca i64, align 8
  %6 = alloca ptr, align 8
  %7 = alloca %"struct.std::hash.145", align 1
  %8 = alloca ptr, align 8
  %9 = alloca %"struct.std::hash.164", align 1
  %10 = alloca ptr, align 8
  %11 = alloca %"struct.std::hash.199", align 1
  store ptr %0, ptr %3, align 8, !tbaa !130
  store ptr %1, ptr %4, align 8, !tbaa !132
  call void @llvm.lifetime.start.p0(i64 8, ptr %5) #4
  store i64 0, ptr %5, align 8, !tbaa !117
  call void @llvm.lifetime.start.p0(i64 8, ptr %6) #4
  %12 = load ptr, ptr %4, align 8, !tbaa !132
  %13 = call noundef ptr @_ZN4Luau6get_ifIPKNS_4TypeEJS3_PKNS_11TypePackVarEPKNS_10ConstraintEEEEPKT_PKNS_7VariantIJDpT0_EEE(ptr noundef %12)
  store ptr %13, ptr %6, align 8, !tbaa !66
  %14 = load ptr, ptr %6, align 8, !tbaa !66
  %15 = icmp ne ptr %14, null
  br i1 %15, label %16, label %20

16:                                               ; preds = %2
  call void @llvm.lifetime.start.p0(i64 1, ptr %7) #4
  %17 = load ptr, ptr %6, align 8, !tbaa !66
  %18 = load ptr, ptr %17, align 8, !tbaa !44
  %19 = call noundef i64 @_ZNKSt4hashIPKN4Luau4TypeEEclES3_(ptr noundef nonnull align 1 dereferenceable(1) %7, ptr noundef %18) #4
  store i64 %19, ptr %5, align 8, !tbaa !117
  call void @llvm.lifetime.end.p0(i64 1, ptr %7) #4
  br label %41

20:                                               ; preds = %2
  call void @llvm.lifetime.start.p0(i64 8, ptr %8) #4
  %21 = load ptr, ptr %4, align 8, !tbaa !132
  %22 = call noundef ptr @_ZN4Luau6get_ifIPKNS_11TypePackVarEJPKNS_4TypeES3_PKNS_10ConstraintEEEEPKT_PKNS_7VariantIJDpT0_EEE(ptr noundef %21)
  store ptr %22, ptr %8, align 8, !tbaa !134
  %23 = load ptr, ptr %8, align 8, !tbaa !134
  %24 = icmp ne ptr %23, null
  br i1 %24, label %25, label %29

25:                                               ; preds = %20
  call void @llvm.lifetime.start.p0(i64 1, ptr %9) #4
  %26 = load ptr, ptr %8, align 8, !tbaa !134
  %27 = load ptr, ptr %26, align 8, !tbaa !128
  %28 = call noundef i64 @_ZNKSt4hashIPKN4Luau11TypePackVarEEclES3_(ptr noundef nonnull align 1 dereferenceable(1) %9, ptr noundef %27) #4
  store i64 %28, ptr %5, align 8, !tbaa !117
  call void @llvm.lifetime.end.p0(i64 1, ptr %9) #4
  br label %40

29:                                               ; preds = %20
  call void @llvm.lifetime.start.p0(i64 8, ptr %10) #4
  %30 = load ptr, ptr %4, align 8, !tbaa !132
  %31 = call noundef ptr @_ZN4Luau6get_ifIPKNS_10ConstraintEJPKNS_4TypeEPKNS_11TypePackVarES3_EEEPKT_PKNS_7VariantIJDpT0_EEE(ptr noundef %30)
  store ptr %31, ptr %10, align 8, !tbaa !136
  %32 = load ptr, ptr %10, align 8, !tbaa !136
  %33 = icmp ne ptr %32, null
  br i1 %33, label %34, label %38

34:                                               ; preds = %29
  call void @llvm.lifetime.start.p0(i64 1, ptr %11) #4
  %35 = load ptr, ptr %10, align 8, !tbaa !136
  %36 = load ptr, ptr %35, align 8, !tbaa !60
  %37 = call noundef i64 @_ZNKSt4hashIPKN4Luau10ConstraintEEclES3_(ptr noundef nonnull align 1 dereferenceable(1) %11, ptr noundef %36) #4
  store i64 %37, ptr %5, align 8, !tbaa !117
  call void @llvm.lifetime.end.p0(i64 1, ptr %11) #4
  br label %39

38:                                               ; preds = %29
  br label %39

39:                                               ; preds = %38, %34
  call void @llvm.lifetime.end.p0(i64 8, ptr %10) #4
  br label %40

40:                                               ; preds = %39, %25
  call void @llvm.lifetime.end.p0(i64 8, ptr %8) #4
  br label %41

41:                                               ; preds = %40, %16
  call void @llvm.lifetime.end.p0(i64 8, ptr %6) #4
  %42 = load i64, ptr %5, align 8, !tbaa !117
  call void @llvm.lifetime.end.p0(i64 8, ptr %5) #4
  ret i64 %42
}