; Function Attrs: mustprogress nofree norecurse nosync nounwind willreturn memory(argmem: read) uwtable
define dso_local noundef i64 @_ZNK4Luau23HashBlockedConstraintIdclERKNS_7VariantIJPKNS_4TypeEPKNS_11TypePackVarEPKNS_10ConstraintEEEE(ptr noundef nonnull readnone align 1 captures(none) dereferenceable(1) %0, ptr noundef nonnull readonly align 8 captures(none) dereferenceable(16) %1) local_unnamed_addr #7 align 2 {
  %3 = load i32, ptr %1, align 8, !tbaa !107
  %4 = getelementptr inbounds nuw i8, ptr %1, i64 8
  switch i32 %3, label %14 [
    i32 0, label %5
    i32 1, label %8
    i32 2, label %11
  ]

5:                                                ; preds = %2
  %6 = load ptr, ptr %4, align 8, !tbaa !37
  %7 = ptrtoint ptr %6 to i64
  br label %14

8:                                                ; preds = %2
  %9 = load ptr, ptr %4, align 8, !tbaa !171
  %10 = ptrtoint ptr %9 to i64
  br label %14

11:                                               ; preds = %2
  %12 = load ptr, ptr %4, align 8, !tbaa !81
  %13 = ptrtoint ptr %12 to i64
  br label %14

14:                                               ; preds = %2, %8, %11, %5
  %.0 = phi i64 [ %7, %5 ], [ %10, %8 ], [ %13, %11 ], [ 0, %2 ]
  ret i64 %.0
}